Certificate:
    Data:
        Version: 1 (0x0)
        Serial Number: 0 (0x0)
    Signature Algorithm: sha256WithRSAEncryption
        Issuer: C=US, CN=Test Intermediate CA
        Validity
            Not Before: Apr 29 14:28:07 2024 GMT
            Not After : Apr 29 14:28:07 2025 GMT
        Subject: C=US, CN=Test Leaf
        Subject Public Key Info:
            Public Key Algorithm: rsaEncryption
                RSA Public-Key: (2048 bit)
                Modulus:
                    00:dd:4c:e9:ce:d5:4f:78:6e:d6:14:ec:b6:f6:d0:
                    07:2b:c7:6c:2b:0c:10:35:58:5d:5c:35:55:37:ce:
                    9a:e8:2f:0e:c9:79:71:74:63:cf:64:c4:e7:7f:95:
                    8f:a4:90:66:1e:db:72:09:5d:5d:d0:02:97:2b:23:
                    59:26:2f:f5:6c:ad:3d:0b:76:38:d9:1c:c2:b6:fd:
                    fe:c9:4e:6c:10:92:05:3e:6c:1e:dd:79:65:db:7b:
                    00:24:0a:2c:26:a3:0f:a5:a0:2d:45:f3:b7:b9:84:
                    a3:28:50:a3:ad:dc:bc:7b:94:7f:01:ff:59:05:af:
                    9f:6c:0f:a4:0b:7d:18:87:e6:fc:dc:b0:f6:f6:86:
                    96:3d:dc:57:cb:71:fd:dc:fe:bb:5c:08:dd:e7:96:
                    7f:3b:86:da:65:6f:9b:3e:04:6a:1e:66:c7:40:e0:
                    70:16:dc:bf:19:8c:93:0c:fe:5c:33:cd:37:31:59:
                    64:b9:d2:83:0d:ca:97:ce:64:58:65:81:9e:26:24:
                    80:da:a4:e6:9d:71:41:07:13:c9:0e:0a:09:9e:c9:
                    28:df:05:ce:8f:53:94:b4:dc:da:dd:96:06:d6:c0:
                    81:c8:bd:1f:93:a5:7a:cd:3d:ea:f7:6d:2c:b9:57:
                    2a:d9:f3:74:ff:24:b9:1b:f9:44:e1:ba:36:02:33:
                    7d:73
                Exponent: 65537 (0x10001)
    Signature Algorithm: sha256WithRSAEncryption
         49:92:56:41:4e:79:21:85:88:5d:74:cb:83:ec:b9:20:3e:eb:
         0f:2e:70:f1:a1:4e:3e:c1:65:6e:ff:5e:86:83:0c:8d:8f:87:
         77:de:68:ef:ac:3f:e7:ff:e5:ff:0f:b1:2c:0b:32:3d:92:8c:
         1a:ef:66:ea:2b:53:cb:f0:77:83:c7:37:f1:0b:0f:79:b9:7c:
         b2:f6:47:6f:cf:4d:b9:f6:bb:0a:24:a6:47:fa:03:74:38:63:
         62:74:0c:29:35:f4:13:35:9d:d9:3d:cc:2b:c0:b5:a7:8d:d9:
         e5:95:99:82:33:71:6f:8f:45:ed:2b:b1:fb:78:0d:15:2d:8e:
         fe:67:9c:39:79:a4:19:32:72:7a:ec:d1:27:05:1b:f0:a7:26:
         03:93:28:28:20:fc:d6:20:c4:d3:9c:d1:53:18:25:25:4f:55:
         61:0a:0b:31:e6:93:aa:0a:08:31:56:97:a7:f8:79:a0:b4:97:
         39:f5:2e:b0:e4:5c:e0:b1:d3:73:f7:b7:ff:5c:31:d4:ca:56:
         8b:36:9e:d2:77:62:6c:d4:60:a3:96:4f:62:66:13:0c:2e:86:
         52:d5:69:9f:e6:07:dd:2c:ff:6f:55:5d:e1:c1:ff:06:99:6d:
         fb:2e:e8:af:e5:88:00:ef:72:f4:d7:f4:7c:22:ee:25:47:46:
         33:a8:97:f4
-----BEGIN CERTIFICATE-----
MIICwTCCAakCAQAwDQYJKoZIhvcNAQELBQAwLDELMAkGA1UEBhMCVVMxHTAbBgNV
BAMMFFRlc3QgSW50ZXJtZWRpYXRlIENBMB4XDTI0MDQyOTE0MjgwN1oXDTI1MDQy
OTE0MjgwN1owITELMAkGA1UEBhMCVVMxEjAQBgNVBAMMCVRlc3QgTGVhZjCCASIw
DQYJKoZIhvcNAQEBBQADggEPADCCAQoCggEBAN1M6c7VT3hu1hTstvbQByvHbCsM
EDVYXVw1VTfOmugvDsl5cXRjz2TE53+Vj6SQZh7bcgldXdAClysjWSYv9WytPQt2
ONkcwrb9/slObBCSBT5sHt15Zdt7ACQKLCajD6WgLUXzt7mEoyhQo63cvHuUfwH/
WQWvn2wPpAt9GIfm/Nyw9vaGlj3cV8tx/dz+u1wI3eeWfzuG2mVvmz4Eah5mx0Dg
cBbcvxmMkwz+XDPNNzFZZLnSgw3Kl85kWGWBniYkgNqk5p1xQQcTyQ4KCZ7JKN8F
zo9TlLTc2t2WBtbAgci9H5Oles096vdtLLlXKtnzdP8kuRv5ROG6NgIzfXMCAwEA
ATANBgkqhkiG9w0BAQsFAAOCAQEASZJWQU55IYWIXXTLg+y5ID7rDy5w8aFOPsFl
bv9ehoMMjY+Hd95o76w/5//l/w+xLAsyPZKMGu9m6itTy/B3g8c38QsPebl8svZH
b89Nufa7CiSmR/oDdDhjYnQMKTX0EzWd2T3MK8C1p43Z5ZWZgjNxb49F7Sux+3gN
FS2O/mecOXmkGTJyeuzRJwUb8KcmA5MoKCD81iDE05zRUxglJU9VYQoLMeaTqgoI
MVaXp/h5oLSXOfUusORc4LHTc/e3/1wx1MpWizae0ndibNRgo5ZPYmYTDC6GUtVp
n+YH3Sz/b1Vd4cH/Bplt+y7or+WIAO9y9Nf0fCLuJUdGM6iX9A==
-----END CERTIFICATE-----
