Certificate:
    Data:
        Version: 1 (0x0)
        Serial Number: 1 (0x1)
    Signature Algorithm: sha256WithRSAEncryption
        Issuer: C=US, CN=Test Intermediate CA
        Validity
            Not Before: Apr 29 18:24:47 2024 GMT
            Not After : Apr 29 18:24:47 2025 GMT
        Subject: C=US, CN=Test Leaf
        Subject Public Key Info:
            Public Key Algorithm: rsaEncryption
                RSA Public-Key: (2048 bit)
                Modulus:
                    00:b3:e2:b4:a8:1e:62:ac:96:bd:4a:03:5b:da:27:
                    a1:34:cf:38:15:8f:ea:6e:56:9e:6c:e8:e3:31:f6:
                    b3:65:c2:0f:fc:7e:bd:0b:2e:77:ee:23:97:be:44:
                    8b:df:ba:1d:ac:4f:e5:5a:e0:41:6c:76:48:88:f7:
                    0e:5c:ea:3c:8c:2d:8a:ff:82:32:c2:06:c6:8b:c0:
                    96:cb:b8:7e:08:21:5e:12:d1:97:6f:f3:3e:23:c8:
                    06:6a:28:b3:78:c9:02:c9:c6:6c:ee:f8:c0:cd:bd:
                    8d:6c:7a:7f:b1:dd:47:42:d2:2f:6c:d7:8d:53:ee:
                    99:47:86:e1:c3:06:df:ff:28:86:3f:83:ff:55:41:
                    a0:0e:73:b0:76:5e:19:37:bf:e9:1f:0b:b4:49:9f:
                    8e:54:d6:c5:b3:69:99:f5:ee:c8:7e:0f:f4:a4:4f:
                    54:87:a7:bb:f8:2b:2d:e3:2f:08:28:5b:10:49:8e:
                    da:a4:3a:dd:07:c6:90:87:65:95:7b:68:9b:25:df:
                    e3:f3:92:01:9f:65:c0:b7:e8:8e:b9:2b:83:46:28:
                    ae:9d:bc:67:17:54:e4:89:85:e0:72:11:30:42:b4:
                    74:a5:7a:49:a3:dc:2f:64:5d:70:14:d5:0f:68:1a:
                    35:17:a6:e3:ec:a3:fc:a9:14:d2:05:1b:6b:7f:f8:
                    36:25
                Exponent: 65537 (0x10001)
    Signature Algorithm: sha256WithRSAEncryption
         d5:16:0e:66:c6:4d:7c:25:7c:c9:35:93:a5:94:05:06:fd:1a:
         41:a8:72:41:5e:ac:36:70:e5:62:83:18:0d:1c:98:3a:67:6a:
         4d:47:91:54:38:48:eb:b4:dc:4b:10:22:18:87:e0:a7:6c:4b:
         91:66:62:6e:87:ca:b7:a5:9e:ba:64:d7:0f:5c:06:aa:80:47:
         69:c6:bd:e7:a3:b2:e5:b2:ee:0f:64:67:d3:9b:36:c7:3d:55:
         a9:76:8f:07:81:57:97:7c:00:9d:31:d2:a2:dc:fe:7c:47:79:
         0c:fe:a5:33:3e:3b:63:a2:af:df:4a:b0:73:67:73:66:fa:6f:
         a4:b1:1c:02:9f:e2:13:35:68:25:17:16:a9:28:d8:60:ce:11:
         1c:0b:15:6e:fe:e8:78:9c:84:a6:aa:02:62:d7:fc:ff:4b:bc:
         a6:60:31:4b:32:71:bf:80:10:3b:5d:3f:df:15:dd:b0:87:db:
         b3:f2:0f:cf:c8:71:94:52:ad:7b:a7:57:d0:ec:49:a1:cd:a3:
         2a:5c:9f:de:30:c4:4d:65:52:39:6f:cc:e8:a8:71:68:74:95:
         d2:40:a6:ba:16:2b:89:39:e9:32:c2:12:7f:e3:35:be:80:4b:
         15:55:86:06:d1:bb:b9:94:86:12:17:e6:14:22:d0:25:2b:be:
         9a:7b:08:f9
-----BEGIN CERTIFICATE-----
MIICwTCCAakCAQEwDQYJKoZIhvcNAQELBQAwLDELMAkGA1UEBhMCVVMxHTAbBgNV
BAMMFFRlc3QgSW50ZXJtZWRpYXRlIENBMB4XDTI0MDQyOTE4MjQ0N1oXDTI1MDQy
OTE4MjQ0N1owITELMAkGA1UEBhMCVVMxEjAQBgNVBAMMCVRlc3QgTGVhZjCCASIw
DQYJKoZIhvcNAQEBBQADggEPADCCAQoCggEBALPitKgeYqyWvUoDW9onoTTPOBWP
6m5Wnmzo4zH2s2XCD/x+vQsud+4jl75Ei9+6HaxP5VrgQWx2SIj3DlzqPIwtiv+C
MsIGxovAlsu4fgghXhLRl2/zPiPIBmoos3jJAsnGbO74wM29jWx6f7HdR0LSL2zX
jVPumUeG4cMG3/8ohj+D/1VBoA5zsHZeGTe/6R8LtEmfjlTWxbNpmfXuyH4P9KRP
VIenu/grLeMvCChbEEmO2qQ63QfGkIdllXtomyXf4/OSAZ9lwLfojrkrg0Yorp28
ZxdU5ImF4HIRMEK0dKV6SaPcL2RdcBTVD2gaNRem4+yj/KkU0gUba3/4NiUCAwEA
ATANBgkqhkiG9w0BAQsFAAOCAQEA1RYOZsZNfCV8yTWTpZQFBv0aQahyQV6sNnDl
YoMYDRyYOmdqTUeRVDhI67TcSxAiGIfgp2xLkWZibofKt6WeumTXD1wGqoBHaca9
56Oy5bLuD2Rn05s2xz1VqXaPB4FXl3wAnTHSotz+fEd5DP6lMz47Y6Kv30qwc2dz
ZvpvpLEcAp/iEzVoJRcWqSjYYM4RHAsVbv7oeJyEpqoCYtf8/0u8pmAxSzJxv4AQ
O10/3xXdsIfbs/IPz8hxlFKte6dX0OxJoc2jKlyf3jDETWVSOW/M6KhxaHSV0kCm
uhYriTnpMsISf+M1voBLFVWGBtG7uZSGEhfmFCLQJSu+mnsI+Q==
-----END CERTIFICATE-----
