Certificate:
    Data:
        Version: 3 (0x2)
        Serial Number: 3 (0x3)
    Signature Algorithm: sha256WithRSAEncryption
        Issuer: C=US, CN=Test Root CA
        Validity
            Not Before: Apr 29 18:24:31 2024 GMT
            Not After : Apr 29 18:24:31 2026 GMT
        Subject: C=US, CN=Test Intermediate CA
        Subject Public Key Info:
            Public Key Algorithm: rsaEncryption
                RSA Public-Key: (2048 bit)
                Modulus:
                    00:f0:ae:e4:1a:68:08:38:ed:4d:82:de:b2:d2:4f:
                    e7:24:9a:2a:04:60:54:af:7e:8b:cd:57:48:b0:68:
                    6e:74:b7:4a:c0:c0:ac:a8:74:c0:c5:45:c3:54:b2:
                    80:d9:d9:64:08:42:89:98:0f:cb:ee:6a:68:20:97:
                    20:bf:4b:c3:46:21:67:8a:34:99:8d:34:90:e1:ee:
                    31:02:24:a4:18:0d:35:da:7a:01:75:e8:2f:9b:55:
                    90:b6:26:f6:60:b4:7f:53:a1:91:fc:5a:b5:a4:17:
                    95:26:93:3c:57:c6:7d:d7:8c:2b:0c:d9:7e:cd:96:
                    7a:67:f5:83:23:30:2f:a5:bb:b1:fe:ea:4c:86:51:
                    2f:e0:58:b1:77:13:cb:a4:08:0e:67:33:d2:d5:62:
                    9d:79:c7:98:27:d7:b0:df:c7:0e:0f:e8:06:1b:ed:
                    5b:6d:9c:9c:a5:f1:a8:a0:0c:01:79:4b:7e:a6:5e:
                    15:f2:a8:d9:cd:19:37:95:d4:fd:03:43:ec:5e:3a:
                    9f:95:47:bc:65:06:e3:9b:31:3c:e9:0e:c8:1d:33:
                    6f:10:a7:0a:fd:c5:ee:9a:88:e2:f0:41:69:6c:77:
                    cc:08:9f:ab:78:9f:57:38:2d:ff:df:0c:32:f0:44:
                    d5:0e:e5:16:c1:0d:7f:58:21:33:f5:1a:be:ec:11:
                    86:41
                Exponent: 65537 (0x10001)
        X509v3 extensions:
            X509v3 Basic Constraints: critical
                CA:TRUE
            X509v3 Key Usage: critical
                Certificate Sign
    Signature Algorithm: sha256WithRSAEncryption
         58:a7:4e:7d:a2:59:6d:3c:c0:b5:d5:fc:1f:49:88:e7:91:56:
         43:8e:d7:12:81:41:26:72:31:5f:29:2b:81:a7:4b:65:a1:cb:
         70:e0:87:3c:a0:81:bc:8f:74:55:f7:17:fe:75:51:b4:01:83:
         00:10:39:ff:fc:8a:81:77:ad:f4:9f:e4:ba:b9:df:25:12:c8:
         c6:cd:44:37:2d:50:0b:5d:b6:24:c9:b0:71:a1:80:43:88:68:
         14:4f:c7:f2:a1:1f:03:44:6d:b5:c1:f1:05:c4:8f:6a:c6:0e:
         ef:67:ad:01:0c:65:eb:fd:2a:6a:c0:c2:8c:6f:88:f9:8d:d7:
         5c:0c:22:e0:55:34:cb:58:9f:9a:5d:de:cc:03:39:be:f4:ae:
         b8:24:2f:2a:4e:57:08:d0:92:52:25:2c:7a:61:ff:46:44:78:
         95:db:a4:83:4a:d4:35:bd:97:3d:6d:3c:bd:1e:82:41:8d:10:
         fa:64:72:af:67:7d:66:14:b7:0f:3f:ec:b2:27:18:2a:17:d7:
         84:93:7c:ff:1d:eb:84:1a:ea:5e:9b:62:22:f0:b4:bd:8a:1e:
         3d:5f:c4:45:c4:af:85:a1:b7:db:cb:c6:b7:f4:25:99:d0:fb:
         9c:be:ee:54:fb:01:05:0c:d6:9d:b4:cc:01:57:41:f3:a0:8f:
         f9:58:17:d5
-----BEGIN CERTIFICATE-----
MIIC7jCCAdagAwIBAgIBAzANBgkqhkiG9w0BAQsFADAkMQswCQYDVQQGEwJVUzEV
MBMGA1UEAwwMVGVzdCBSb290IENBMB4XDTI0MDQyOTE4MjQzMVoXDTI2MDQyOTE4
MjQzMVowLDELMAkGA1UEBhMCVVMxHTAbBgNVBAMMFFRlc3QgSW50ZXJtZWRpYXRl
IENBMIIBIjANBgkqhkiG9w0BAQEFAAOCAQ8AMIIBCgKCAQEA8K7kGmgIOO1Ngt6y
0k/nJJoqBGBUr36LzVdIsGhudLdKwMCsqHTAxUXDVLKA2dlkCEKJmA/L7mpoIJcg
v0vDRiFnijSZjTSQ4e4xAiSkGA012noBdegvm1WQtib2YLR/U6GR/Fq1pBeVJpM8
V8Z914wrDNl+zZZ6Z/WDIzAvpbux/upMhlEv4FixdxPLpAgOZzPS1WKdeceYJ9ew
38cOD+gGG+1bbZycpfGooAwBeUt+pl4V8qjZzRk3ldT9A0PsXjqflUe8ZQbjmzE8
6Q7IHTNvEKcK/cXumoji8EFpbHfMCJ+reJ9XOC3/3wwy8ETVDuUWwQ1/WCEz9Rq+
7BGGQQIDAQABoyMwITAPBgNVHRMBAf8EBTADAQH/MA4GA1UdDwEB/wQEAwICBDAN
BgkqhkiG9w0BAQsFAAOCAQEAWKdOfaJZbTzAtdX8H0mI55FWQ47XEoFBJnIxXykr
gadLZaHLcOCHPKCBvI90VfcX/nVRtAGDABA5//yKgXet9J/kurnfJRLIxs1ENy1Q
C122JMmwcaGAQ4hoFE/H8qEfA0RttcHxBcSPasYO72etAQxl6/0qasDCjG+I+Y3X
XAwi4FU0y1ifml3ezAM5vvSuuCQvKk5XCNCSUiUsemH/RkR4ldukg0rUNb2XPW08
vR6CQY0Q+mRyr2d9ZhS3Dz/ssicYKhfXhJN8/x3rhBrqXptiIvC0vYoePV/ERcSv
haG328vGt/QlmdD7nL7uVPsBBQzWnbTMAVdB86CP+VgX1Q==
-----END CERTIFICATE-----
