Certificate:
    Data:
        Version: 3 (0x2)
        Serial Number: 5 (0x5)
    Signature Algorithm: sha256WithRSAEncryption
        Issuer: C=US, CN=ca.local
        Validity
            Not Before: Apr 29 19:11:12 2024 GMT
            Not After : Apr 29 19:11:12 2026 GMT
        Subject: C=US, CN=intermediate.local
        Subject Public Key Info:
            Public Key Algorithm: rsaEncryption
                RSA Public-Key: (2048 bit)
                Modulus:
                    00:ba:50:87:8a:b1:7e:c8:b8:8f:74:e2:9f:56:90:
                    34:05:8e:22:44:67:0f:f7:70:25:d1:39:f7:83:d7:
                    3c:f7:58:03:92:12:c7:48:e3:84:bd:1a:54:c7:09:
                    0b:cb:6f:68:06:1a:ab:8a:05:c7:7b:b7:9f:fc:cd:
                    12:4d:9b:88:86:79:7c:f6:1b:c9:1b:5e:ad:9b:80:
                    dd:cc:34:6c:81:22:f4:24:6e:bc:5d:23:eb:e0:16:
                    8d:df:0f:5e:88:1f:6d:45:f6:5c:b3:1d:00:99:48:
                    e8:fc:7b:d9:f3:db:e3:1a:12:aa:3b:f9:cf:3a:6f:
                    4d:cd:d8:f5:fa:c3:28:4b:41:ca:f3:a4:1b:b9:b5:
                    a6:19:12:f4:23:1c:f0:9e:31:4e:c4:d2:db:d7:da:
                    f6:b5:fc:f7:e3:fc:01:38:61:87:29:d0:13:2f:83:
                    a6:57:e6:3a:5f:b7:14:3a:0d:57:8e:cc:a7:d5:42:
                    e1:8c:9d:bc:7a:05:bd:c1:a4:f4:9e:6d:35:13:fc:
                    b3:44:4b:e4:b3:c1:7a:58:93:d8:03:7a:cd:30:3d:
                    06:72:69:8e:f1:ce:51:74:2a:bd:18:d6:02:7b:ff:
                    49:3d:84:73:e0:d4:33:8a:0b:c5:12:19:26:e4:ba:
                    e0:fd:bb:ee:79:6d:53:ca:bd:8f:37:f0:4c:61:12:
                    af:ed
                Exponent: 65537 (0x10001)
        X509v3 extensions:
            X509v3 Basic Constraints: critical
                CA:TRUE
            X509v3 Key Usage: critical
                Certificate Sign
    Signature Algorithm: sha256WithRSAEncryption
         8b:83:47:a8:a5:19:45:22:f2:87:14:0a:d5:08:60:7a:ff:9a:
         c8:86:82:6f:0c:73:30:3a:c3:3f:7e:36:af:9b:07:25:84:07:
         d1:6e:12:72:d0:97:1c:57:c6:1f:6f:73:a0:0b:e7:0a:50:7a:
         7e:90:49:16:e9:f6:b1:a0:d5:05:72:6f:62:22:4f:fb:dc:57:
         36:a8:ca:00:2a:55:06:fc:6f:9e:50:9a:11:1f:8f:b8:25:8f:
         1e:28:f2:12:9a:59:81:73:c5:28:38:06:cd:d4:1b:d5:db:83:
         92:fe:34:15:5d:7b:d2:69:ad:6b:d9:4e:c6:8b:e4:e8:a5:fc:
         98:9e:ae:f6:04:c6:b1:99:24:d7:23:e0:d5:40:b5:ee:3b:6d:
         51:96:72:20:fd:4a:6a:df:8c:86:7d:d1:46:51:7e:dc:94:28:
         b5:d2:f4:ca:61:18:d0:3f:82:a9:3e:8f:c6:47:90:a3:f3:8d:
         5d:8f:d5:ed:d7:04:18:7e:98:0a:60:5e:09:cd:69:db:8d:46:
         80:4e:00:7a:f1:04:f3:64:82:32:5b:bf:ef:52:a5:20:4d:04:
         f7:0c:a9:8a:5a:14:f0:1d:ac:3b:b0:f3:85:c1:9c:c9:fc:eb:
         a5:61:96:50:d5:3a:de:f6:4e:fa:1f:61:0e:42:c1:a2:66:3c:
         78:0f:a5:e1
-----BEGIN CERTIFICATE-----
MIIC6DCCAdCgAwIBAgIBBTANBgkqhkiG9w0BAQsFADAgMQswCQYDVQQGEwJVUzER
MA8GA1UEAwwIY2EubG9jYWwwHhcNMjQwNDI5MTkxMTEyWhcNMjYwNDI5MTkxMTEy
WjAqMQswCQYDVQQGEwJVUzEbMBkGA1UEAwwSaW50ZXJtZWRpYXRlLmxvY2FsMIIB
IjANBgkqhkiG9w0BAQEFAAOCAQ8AMIIBCgKCAQEAulCHirF+yLiPdOKfVpA0BY4i
RGcP93Al0Tn3g9c891gDkhLHSOOEvRpUxwkLy29oBhqrigXHe7ef/M0STZuIhnl8
9hvJG16tm4DdzDRsgSL0JG68XSPr4BaN3w9eiB9tRfZcsx0AmUjo/HvZ89vjGhKq
O/nPOm9Nzdj1+sMoS0HK86QbubWmGRL0IxzwnjFOxNLb19r2tfz34/wBOGGHKdAT
L4OmV+Y6X7cUOg1Xjsyn1ULhjJ28egW9waT0nm01E/yzREvks8F6WJPYA3rNMD0G
cmmO8c5RdCq9GNYCe/9JPYRz4NQzigvFEhkm5Lrg/bvueW1Tyr2PN/BMYRKv7QID
AQABoyMwITAPBgNVHRMBAf8EBTADAQH/MA4GA1UdDwEB/wQEAwICBDANBgkqhkiG
9w0BAQsFAAOCAQEAi4NHqKUZRSLyhxQK1Qhgev+ayIaCbwxzMDrDP342r5sHJYQH
0W4SctCXHFfGH29zoAvnClB6fpBJFun2saDVBXJvYiJP+9xXNqjKACpVBvxvnlCa
ER+PuCWPHijyEppZgXPFKDgGzdQb1duDkv40FV170mmta9lOxovk6KX8mJ6u9gTG
sZkk1yPg1UC17jttUZZyIP1Kat+Mhn3RRlF+3JQotdL0ymEY0D+CqT6PxkeQo/ON
XY/V7dcEGH6YCmBeCc1p241GgE4AevEE82SCMlu/71KlIE0E9wypiloU8B2sO7Dz
hcGcyfzrpWGWUNU63vZO+h9hDkLBomY8eA+l4Q==
-----END CERTIFICATE-----
