Certificate:
    Data:
        Version: 1 (0x0)
        Serial Number: 2 (0x2)
    Signature Algorithm: sha256WithRSAEncryption
        Issuer: C=US, CN=intermediate.local
        Validity
            Not Before: Apr 29 19:11:27 2024 GMT
            Not After : Apr 29 19:11:27 2025 GMT
        Subject: C=US, CN=bff.local
        Subject Public Key Info:
            Public Key Algorithm: rsaEncryption
                RSA Public-Key: (2048 bit)
                Modulus:
                    00:b1:56:7a:12:6a:df:0d:f0:b0:ec:00:0c:e3:15:
                    fc:71:b6:52:0f:82:e4:d1:5d:48:7b:2d:7e:7e:38:
                    cf:60:c6:47:79:bf:f4:2f:fe:61:4e:89:57:5d:6e:
                    cd:d5:5d:f0:66:f6:c4:ce:e7:1d:50:48:f2:14:0c:
                    e6:ec:da:a5:94:27:cc:d4:7f:ec:e5:71:1c:7e:30:
                    b5:4a:1b:28:cc:d8:0b:db:34:74:4e:c9:da:bd:e3:
                    a1:02:30:91:a2:3a:49:90:64:84:d6:13:50:31:f6:
                    1b:4d:87:ef:71:ea:eb:29:23:b4:35:59:72:c2:c2:
                    fd:dd:ec:9f:b7:e4:79:ec:72:c5:7b:6f:0f:24:9a:
                    70:f5:76:2f:56:b1:8d:4b:27:0f:c3:07:7e:46:5c:
                    d6:93:e4:21:08:41:76:66:6e:28:16:4f:6f:2a:0f:
                    36:51:89:10:ad:0a:fc:ba:83:d3:ea:43:5b:a8:03:
                    5d:e8:a8:72:94:3e:72:33:2f:7e:dd:c7:86:0e:c1:
                    79:f5:75:6b:91:a4:32:e9:69:fc:48:8e:7c:13:20:
                    88:e9:55:df:98:e5:fd:92:82:ce:fa:94:58:00:21:
                    52:6a:04:84:c9:ac:65:96:ea:7c:3a:49:b7:a2:04:
                    3f:94:f9:a3:66:cf:ba:f1:51:86:04:b2:5e:3f:7d:
                    97:df
                Exponent: 65537 (0x10001)
    Signature Algorithm: sha256WithRSAEncryption
         28:7a:a4:44:d5:2b:1f:80:f9:fb:ae:fa:7f:75:06:f6:55:36:
         92:27:5f:35:9e:28:ef:f6:92:a7:8f:36:a8:9d:c4:c5:72:32:
         e1:cf:71:af:4d:56:96:e9:a7:14:4c:c4:7d:f4:c0:8f:a9:c2:
         39:7b:31:35:8a:26:1f:a6:e7:41:90:cf:17:2b:31:d5:b5:b3:
         ce:bb:61:d3:58:c4:25:3a:0d:06:8c:f9:2f:51:44:2b:59:26:
         35:01:20:9d:e6:f6:32:e4:8a:40:67:bb:92:cc:49:1c:85:87:
         51:f5:6f:85:fa:fc:3d:b9:d4:f2:08:a1:0a:ab:c5:7f:09:f7:
         e4:1e:7c:c0:a9:bb:9c:5b:a1:79:d6:74:b0:c6:40:97:0e:6a:
         d0:d4:e8:c3:ef:3c:91:c3:f1:c4:05:6b:38:a2:2b:2c:62:bf:
         5f:9f:55:22:16:7b:47:bc:21:1a:a1:34:46:bf:b8:f9:a9:41:
         f5:77:17:5e:42:80:96:fd:de:b6:55:07:61:85:24:53:d2:99:
         c2:36:94:df:85:3b:a7:86:55:88:6d:7b:10:e1:ca:8d:6d:16:
         c7:3b:6b:2c:42:b5:3e:dd:76:57:78:1c:cb:4a:5c:94:55:d2:
         7c:1d:56:5c:d2:05:f2:e4:08:b1:88:69:f0:a7:f3:b7:93:75:
         0c:7f:20:72
-----BEGIN CERTIFICATE-----
MIICvzCCAacCAQIwDQYJKoZIhvcNAQELBQAwKjELMAkGA1UEBhMCVVMxGzAZBgNV
BAMMEmludGVybWVkaWF0ZS5sb2NhbDAeFw0yNDA0MjkxOTExMjdaFw0yNTA0Mjkx
OTExMjdaMCExCzAJBgNVBAYTAlVTMRIwEAYDVQQDDAliZmYubG9jYWwwggEiMA0G
CSqGSIb3DQEBAQUAA4IBDwAwggEKAoIBAQCxVnoSat8N8LDsAAzjFfxxtlIPguTR
XUh7LX5+OM9gxkd5v/Qv/mFOiVddbs3VXfBm9sTO5x1QSPIUDObs2qWUJ8zUf+zl
cRx+MLVKGyjM2AvbNHROydq946ECMJGiOkmQZITWE1Ax9htNh+9x6uspI7Q1WXLC
wv3d7J+35HnscsV7bw8kmnD1di9WsY1LJw/DB35GXNaT5CEIQXZmbigWT28qDzZR
iRCtCvy6g9PqQ1uoA13oqHKUPnIzL37dx4YOwXn1dWuRpDLpafxIjnwTIIjpVd+Y
5f2Sgs76lFgAIVJqBITJrGWW6nw6SbeiBD+U+aNmz7rxUYYEsl4/fZffAgMBAAEw
DQYJKoZIhvcNAQELBQADggEBACh6pETVKx+A+fuu+n91BvZVNpInXzWeKO/2kqeP
NqidxMVyMuHPca9NVpbppxRMxH30wI+pwjl7MTWKJh+m50GQzxcrMdW1s867YdNY
xCU6DQaM+S9RRCtZJjUBIJ3m9jLkikBnu5LMSRyFh1H1b4X6/D251PIIoQqrxX8J
9+QefMCpu5xboXnWdLDGQJcOatDU6MPvPJHD8cQFaziiKyxiv1+fVSIWe0e8IRqh
NEa/uPmpQfV3F15CgJb93rZVB2GFJFPSmcI2lN+FO6eGVYhtexDhyo1tFsc7ayxC
tT7ddld4HMtKXJRV0nwdVlzSBfLkCLGIafCn87eTdQx/IHI=
-----END CERTIFICATE-----
