Certificate:
    Data:
        Version: 3 (0x2)
        Serial Number: 4 (0x4)
    Signature Algorithm: sha256WithRSAEncryption
        Issuer: C=US, CN=ca.local
        Validity
            Not Before: Apr 29 19:10:59 2024 GMT
            Not After : Apr 29 19:10:59 2027 GMT
        Subject: C=US, CN=ca.local
        Subject Public Key Info:
            Public Key Algorithm: rsaEncryption
                RSA Public-Key: (2048 bit)
                Modulus:
                    00:da:be:e4:8a:54:a5:21:c1:8a:66:d3:a0:5f:71:
                    7e:cc:f1:a9:26:a7:d6:30:87:21:8d:a3:b9:fe:d4:
                    7d:3f:bc:67:44:ba:db:90:04:60:2e:63:16:51:20:
                    5b:3a:dd:18:39:0f:84:19:a2:01:98:97:61:33:b0:
                    37:10:11:ab:a8:53:ba:f7:cd:8a:56:82:bc:1e:fa:
                    69:eb:1a:a9:06:5c:fb:76:36:e4:0f:61:12:5f:f7:
                    82:c2:cb:c7:b6:5d:39:73:78:4d:11:3e:ef:7b:20:
                    03:77:23:c1:ad:ce:04:ff:c4:6d:0d:40:75:14:73:
                    e4:06:2e:d6:de:6b:bb:41:6a:98:d9:4f:65:9c:da:
                    1a:fd:d6:40:48:32:12:4e:d0:20:37:eb:bb:f6:c9:
                    b4:ff:fa:df:cd:a5:69:b7:35:a6:14:9b:35:f9:7c:
                    b8:94:9b:e1:37:a7:3d:8a:98:bf:f9:12:74:c6:bf:
                    04:84:c4:ad:98:cd:f5:03:24:27:ac:f2:1c:a1:7d:
                    fb:2a:6f:9c:b4:27:35:11:de:87:75:f4:74:ba:d7:
                    e4:2c:d0:cb:95:81:3e:97:25:8e:f2:89:ae:6a:12:
                    27:f1:35:b9:c7:77:76:83:3c:93:56:24:69:37:50:
                    c6:0b:34:f5:f0:74:fd:be:f1:af:0b:2b:6b:7c:2e:
                    55:1f
                Exponent: 65537 (0x10001)
        X509v3 extensions:
            X509v3 Basic Constraints: critical
                CA:TRUE
            X509v3 Key Usage: critical
                Certificate Sign
    Signature Algorithm: sha256WithRSAEncryption
         86:52:33:1f:88:e1:3a:0a:4a:81:bb:4a:01:85:ce:76:57:da:
         1c:af:46:60:6c:4c:6f:35:79:e0:d8:ac:0d:a1:39:c0:8f:b0:
         cd:98:25:f4:e8:67:2c:65:cf:03:85:78:ba:b7:77:ab:f9:6c:
         16:11:e2:5e:2a:e6:6b:f3:b7:45:7f:69:f7:19:8b:59:3a:03:
         cc:00:c5:12:5b:3f:c4:c2:32:9c:75:9f:d1:0b:49:94:ea:41:
         db:26:2d:0a:be:4e:09:b0:d7:26:78:74:f3:35:6a:90:b8:0c:
         b0:0d:98:16:7e:76:18:fb:50:5d:64:74:00:1a:f9:50:f9:b2:
         71:e9:dc:49:0b:35:81:8f:6c:bc:35:78:d0:c6:30:93:36:a7:
         7f:35:a2:17:7b:21:f8:ae:3c:1b:2b:74:2b:5a:c7:5d:5f:7c:
         66:33:eb:6a:0b:08:95:d2:9c:1e:01:17:b5:25:7b:4e:f7:34:
         6d:fd:3a:dd:8b:4a:db:68:17:d5:34:96:11:7e:ef:7e:06:4e:
         95:f4:f5:0b:0c:c0:a8:f9:bf:a4:58:94:9d:f2:6e:9f:08:77:
         b3:3c:a7:7d:4f:ea:90:62:c7:63:fa:a3:97:69:37:cb:2a:03:
         8c:59:e7:b5:d8:c7:4f:82:17:79:68:d8:84:63:24:55:23:15:
         0b:19:01:0d
-----BEGIN CERTIFICATE-----
MIIC3jCCAcagAwIBAgIBBDANBgkqhkiG9w0BAQsFADAgMQswCQYDVQQGEwJVUzER
MA8GA1UEAwwIY2EubG9jYWwwHhcNMjQwNDI5MTkxMDU5WhcNMjcwNDI5MTkxMDU5
WjAgMQswCQYDVQQGEwJVUzERMA8GA1UEAwwIY2EubG9jYWwwggEiMA0GCSqGSIb3
DQEBAQUAA4IBDwAwggEKAoIBAQDavuSKVKUhwYpm06BfcX7M8akmp9YwhyGNo7n+
1H0/vGdEutuQBGAuYxZRIFs63Rg5D4QZogGYl2EzsDcQEauoU7r3zYpWgrwe+mnr
GqkGXPt2NuQPYRJf94LCy8e2XTlzeE0RPu97IAN3I8GtzgT/xG0NQHUUc+QGLtbe
a7tBapjZT2Wc2hr91kBIMhJO0CA367v2ybT/+t/NpWm3NaYUmzX5fLiUm+E3pz2K
mL/5EnTGvwSExK2YzfUDJCes8hyhffsqb5y0JzUR3od19HS61+Qs0MuVgT6XJY7y
ia5qEifxNbnHd3aDPJNWJGk3UMYLNPXwdP2+8a8LK2t8LlUfAgMBAAGjIzAhMA8G
A1UdEwEB/wQFMAMBAf8wDgYDVR0PAQH/BAQDAgIEMA0GCSqGSIb3DQEBCwUAA4IB
AQCGUjMfiOE6CkqBu0oBhc52V9ocr0ZgbExvNXng2KwNoTnAj7DNmCX06GcsZc8D
hXi6t3er+WwWEeJeKuZr87dFf2n3GYtZOgPMAMUSWz/EwjKcdZ/RC0mU6kHbJi0K
vk4JsNcmeHTzNWqQuAywDZgWfnYY+1BdZHQAGvlQ+bJx6dxJCzWBj2y8NXjQxjCT
Nqd/NaIXeyH4rjwbK3QrWsddX3xmM+tqCwiV0pweARe1JXtO9zRt/Trdi0rbaBfV
NJYRfu9+Bk6V9PULDMCo+b+kWJSd8m6fCHezPKd9T+qQYsdj+qOXaTfLKgOMWee1
2MdPghd5aNiEYyRVIxULGQEN
-----END CERTIFICATE-----
